; Function Attrs: mustprogress nofree norecurse nosync nounwind willreturn memory(argmem: write) uwtable
define dso_local void @_ZN7Builder14SetFailureCodeE10ExitStatus(ptr noundef nonnull writeonly align 8 captures(none) dereferenceable(356) %0, i32 noundef %1) local_unnamed_addr #0 align 2 {
  %.not = icmp eq i32 %1, 0
  br i1 %.not, label %5, label %3

3:                                                ; preds = %2
  %4 = getelementptr inbounds nuw i8, ptr %0, i64 352
  store i32 %1, ptr %4, align 8, !tbaa !229
  br label %5

5:                                                ; preds = %3, %2
  ret void
}